; Function Attrs: mustprogress nounwind uwtable
define internal void @_ZN7Imf_3_212_GLOBAL__N_114TileBufferTaskD0Ev(ptr noundef nonnull align 8 dereferenceable(32) %this) unnamed_addr #4 align 2 personality ptr @__gxx_personality_v0 {
entry:
  store ptr getelementptr inbounds ({ [5 x ptr] }, ptr @_ZTVN7Imf_3_212_GLOBAL__N_114TileBufferTaskE, i64 0, i32 0, i64 2), ptr %this, align 8
  %_tileBuffer.i = getelementptr inbounds i8, ptr %this, i64 24
  %0 = load ptr, ptr %_tileBuffer.i, align 8
  %_sem.i.i = getelementptr inbounds i8, ptr %0, i64 120
  invoke void @_ZN13IlmThread_3_29Semaphore4postEv(ptr noundef nonnull align 8 dereferenceable(40) %_sem.i.i)
          to label %_ZN7Imf_3_212_GLOBAL__N_114TileBufferTaskD2Ev.exit unwind label %terminate.lpad.i

terminate.lpad.i:                                 ; preds = %entry
  %1 = landingpad { ptr, i32 }
          catch ptr null
  %2 = extractvalue { ptr, i32 } %1, 0
  tail call void @__clang_call_terminate(ptr %2) #23
  unreachable

_ZN7Imf_3_212_GLOBAL__N_114TileBufferTaskD2Ev.exit: ; preds = %entry
  tail call void @_ZN13IlmThread_3_24TaskD2Ev(ptr noundef nonnull align 8 dereferenceable(16) %this) #20
  tail call void @_ZdlPv(ptr noundef nonnull %this) #22
  ret void
}